; Function Attrs: nounwind uwtable
define noalias noundef ptr @Proof_CollectUsedRec(ptr noundef readonly captures(none) %0, ptr noundef readonly captures(none) %1) local_unnamed_addr #3 {
  %3 = tail call noalias dereferenceable_or_null(16) ptr @malloc(i64 noundef 16) #17
  %4 = getelementptr inbounds nuw i8, ptr %3, i64 4
  store i32 0, ptr %4, align 4, !tbaa !14
  store i32 1000, ptr %3, align 8, !tbaa !23
  %5 = tail call noalias dereferenceable_or_null(4000) ptr @malloc(i64 noundef 4000) #17
  %6 = getelementptr inbounds nuw i8, ptr %3, i64 8
  store ptr %5, ptr %6, align 8, !tbaa !17
  %7 = getelementptr i8, ptr %1, i64 4
  %.val11 = load i32, ptr %7, align 4, !tbaa !14
  %8 = icmp sgt i32 %.val11, 0
  br i1 %8, label %.lr.ph, label %.critedge

.lr.ph:                                           ; preds = %2
  %9 = getelementptr i8, ptr %1, i64 8
  br label %10

10:                                               ; preds = %.lr.ph, %15
  %.val14 = phi i32 [ %.val11, %.lr.ph ], [ %.val, %15 ]
  %indvars.iv = phi i64 [ 0, %.lr.ph ], [ %indvars.iv.next, %15 ]
  %.val10 = load ptr, ptr %9, align 8, !tbaa !17
  %11 = getelementptr inbounds nuw i32, ptr %.val10, i64 %indvars.iv
  %12 = load i32, ptr %11, align 4, !tbaa !18
  %13 = icmp sgt i32 %12, -1
  br i1 %13, label %14, label %15

14:                                               ; preds = %10
  tail call void @Proof_CollectUsed_rec(ptr noundef %0, i32 noundef %12, ptr noundef nonnull %3)
  %.val.pre = load i32, ptr %7, align 4, !tbaa !14
  br label %15

15:                                               ; preds = %10, %14
  %.val = phi i32 [ %.val14, %10 ], [ %.val.pre, %14 ]
  %indvars.iv.next = add nuw nsw i64 %indvars.iv, 1
  %16 = sext i32 %.val to i64
  %17 = icmp slt i64 %indvars.iv.next, %16
  br i1 %17, label %10, label %.critedge, !llvm.loop !28

.critedge:                                        ; preds = %15, %2
  ret ptr %3
}